target datalayout = "e-m:e-p270:32:32-p271:32:32-p272:64:64-i64:64-i128:128-f80:128-n8:16:32:64-S128"
target triple = "x86_64-pc-linux-gnu"

%"class.sat::literal" = type { i32 }
%"class.sat::model_converter" = type { %class.vector, i32, %class.svector, ptr, %class.svector.1 }
%class.vector = type { ptr }
%class.svector = type { %class.vector.0 }
%class.vector.0 = type { ptr }
%class.svector.1 = type { %class.vector.2 }
%class.vector.2 = type { ptr }
%class.svector.26 = type { %class.vector.27 }
%class.vector.27 = type { ptr }
%"class.sat::model_converter::entry" = type { i32, i32, %class.svector.26, %class.svector.26, %class.ref_vector_core }
%class.ref_vector_core = type { %class.ptr_vector.50 }
%class.ptr_vector.50 = type { %class.vector.51 }
%class.vector.51 = type { ptr }

@_ZN3sat12null_literalE = linkonce_odr hidden constant %"class.sat::literal" { i32 -2 }, comdat, align 4

; Function Attrs: mustprogress nounwind uwtable
define linkonce_odr hidden noundef i32 @_ZNK6vectorIN3sat7literalELb0EjE4sizeEv(ptr noundef nonnull align 8 dereferenceable(8) %0) #6 comdat align 2 {
  %2 = alloca i32, align 4
  %3 = alloca ptr, align 8
  store ptr %0, ptr %3, align 8, !tbaa !192
  %4 = load ptr, ptr %3, align 8
  %5 = getelementptr inbounds nuw %class.vector.27, ptr %4, i32 0, i32 0
  %6 = load ptr, ptr %5, align 8, !tbaa !194
  %7 = icmp eq ptr %6, null
  br i1 %7, label %8, label %9

8:                                                ; preds = %1
  store i32 0, ptr %2, align 4
  br label %14

9:                                                ; preds = %1
  %10 = getelementptr inbounds nuw %class.vector.27, ptr %4, i32 0, i32 0
  %11 = load ptr, ptr %10, align 8, !tbaa !194
  %12 = getelementptr inbounds i32, ptr %11, i64 -1
  %13 = load i32, ptr %12, align 4, !tbaa !20
  store i32 %13, ptr %2, align 4
  br label %14

14:                                               ; preds = %9, %8
  %15 = load i32, ptr %2, align 4
  ret i32 %15
}

; Function Attrs: mustprogress nounwind uwtable
define linkonce_odr hidden noundef i32 @_ZNK6vectorIN3sat15model_converter5entryELb1EjE4sizeEv(ptr noundef nonnull align 8 dereferenceable(8) %0) #6 comdat align 2 {
  %2 = alloca i32, align 4
  %3 = alloca ptr, align 8
  store ptr %0, ptr %3, align 8, !tbaa !204
  %4 = load ptr, ptr %3, align 8
  %5 = getelementptr inbounds nuw %class.vector, ptr %4, i32 0, i32 0
  %6 = load ptr, ptr %5, align 8, !tbaa !206
  %7 = icmp eq ptr %6, null
  br i1 %7, label %8, label %9

8:                                                ; preds = %1
  store i32 0, ptr %2, align 4
  br label %14

9:                                                ; preds = %1
  %10 = getelementptr inbounds nuw %class.vector, ptr %4, i32 0, i32 0
  %11 = load ptr, ptr %10, align 8, !tbaa !206
  %12 = getelementptr inbounds i32, ptr %11, i64 -1
  %13 = load i32, ptr %12, align 4, !tbaa !20
  store i32 %13, ptr %2, align 4
  br label %14

14:                                               ; preds = %9, %8
  %15 = load i32, ptr %2, align 4
  ret i32 %15
}

; Function Attrs: mustprogress nounwind uwtable
define linkonce_odr hidden noundef i32 @_ZNK3sat7literal3varEv(ptr noundef nonnull align 4 dereferenceable(4) %0) #6 comdat align 2 {
  %2 = alloca ptr, align 8
  store ptr %0, ptr %2, align 8, !tbaa !195
  %3 = load ptr, ptr %2, align 8
  %4 = getelementptr inbounds nuw %"class.sat::literal", ptr %3, i32 0, i32 0
  %5 = load i32, ptr %4, align 4, !tbaa !196
  %6 = lshr i32 %5, 1
  ret i32 %6
}

; Function Attrs: inlinehint mustprogress nounwind uwtable
define linkonce_odr hidden noundef zeroext i1 @_ZN3satneERKNS_7literalES2_(ptr noundef nonnull align 4 dereferenceable(4) %0, ptr noundef nonnull align 4 dereferenceable(4) %1) #9 comdat {
  %3 = alloca ptr, align 8
  %4 = alloca ptr, align 8
  store ptr %0, ptr %3, align 8, !tbaa !195
  store ptr %1, ptr %4, align 8, !tbaa !195
  %5 = load ptr, ptr %3, align 8, !tbaa !195
  %6 = getelementptr inbounds nuw %"class.sat::literal", ptr %5, i32 0, i32 0
  %7 = load i32, ptr %6, align 4, !tbaa !196
  %8 = load ptr, ptr %4, align 8, !tbaa !195
  %9 = getelementptr inbounds nuw %"class.sat::literal", ptr %8, i32 0, i32 0
  %10 = load i32, ptr %9, align 4, !tbaa !196
  %11 = icmp ne i32 %7, %10
  ret i1 %11
}

; Function Attrs: mustprogress nounwind uwtable
define linkonce_odr hidden noundef ptr @_ZNK6vectorIN3sat7literalELb0EjE3endEv(ptr noundef nonnull align 8 dereferenceable(8) %0) #6 comdat align 2 {
  %2 = alloca ptr, align 8
  store ptr %0, ptr %2, align 8, !tbaa !192
  %3 = load ptr, ptr %2, align 8
  %4 = getelementptr inbounds nuw %class.vector.27, ptr %3, i32 0, i32 0
  %5 = load ptr, ptr %4, align 8, !tbaa !194
  %6 = call noundef i32 @_ZNK6vectorIN3sat7literalELb0EjE4sizeEv(ptr noundef nonnull align 8 dereferenceable(8) %3)
  %7 = zext i32 %6 to i64
  %8 = getelementptr inbounds nuw %"class.sat::literal", ptr %5, i64 %7
  ret ptr %8
}

; Function Attrs: mustprogress nounwind uwtable
define linkonce_odr hidden noundef ptr @_ZNK6vectorIN3sat7literalELb0EjE5beginEv(ptr noundef nonnull align 8 dereferenceable(8) %0) #6 comdat align 2 {
  %2 = alloca ptr, align 8
  store ptr %0, ptr %2, align 8, !tbaa !192
  %3 = load ptr, ptr %2, align 8
  %4 = getelementptr inbounds nuw %class.vector.27, ptr %3, i32 0, i32 0
  %5 = load ptr, ptr %4, align 8, !tbaa !194
  ret ptr %5
}

; Function Attrs: mustprogress nounwind uwtable
define linkonce_odr hidden noundef ptr @_ZNK6vectorIN3sat15model_converter5entryELb1EjE3endEv(ptr noundef nonnull align 8 dereferenceable(8) %0) #6 comdat align 2 {
  %2 = alloca ptr, align 8
  store ptr %0, ptr %2, align 8, !tbaa !204
  %3 = load ptr, ptr %2, align 8
  %4 = getelementptr inbounds nuw %class.vector, ptr %3, i32 0, i32 0
  %5 = load ptr, ptr %4, align 8, !tbaa !206
  %6 = call noundef i32 @_ZNK6vectorIN3sat15model_converter5entryELb1EjE4sizeEv(ptr noundef nonnull align 8 dereferenceable(8) %3)
  %7 = zext i32 %6 to i64
  %8 = getelementptr inbounds nuw %"class.sat::model_converter::entry", ptr %5, i64 %7
  ret ptr %8
}

; Function Attrs: mustprogress nounwind uwtable
define linkonce_odr hidden noundef ptr @_ZNK6vectorIN3sat15model_converter5entryELb1EjE5beginEv(ptr noundef nonnull align 8 dereferenceable(8) %0) #6 comdat align 2 {
  %2 = alloca ptr, align 8
  store ptr %0, ptr %2, align 8, !tbaa !204
  %3 = load ptr, ptr %2, align 8
  %4 = getelementptr inbounds nuw %class.vector, ptr %3, i32 0, i32 0
  %5 = load ptr, ptr %4, align 8, !tbaa !206
  ret ptr %5
}

; Function Attrs: mustprogress uwtable
define hidden noundef i32 @_ZNK3sat15model_converter7max_varEj(ptr noundef nonnull align 8 dereferenceable(40) %0, i32 noundef %1) #4 align 2 {
  %3 = alloca ptr, align 8
  %4 = alloca i32, align 4
  %5 = alloca i32, align 4
  %6 = alloca ptr, align 8
  %7 = alloca ptr, align 8
  %8 = alloca ptr, align 8
  %9 = alloca i32, align 4
  %10 = alloca ptr, align 8
  %11 = alloca ptr, align 8
  %12 = alloca ptr, align 8
  %13 = alloca ptr, align 8
  %14 = alloca %"class.sat::literal", align 4
  store ptr %0, ptr %3, align 8, !tbaa !3
  store i32 %1, ptr %4, align 4, !tbaa !20
  %15 = load ptr, ptr %3, align 8
  call void @llvm.lifetime.start.p0(i64 4, ptr %5) #3
  %16 = load i32, ptr %4, align 4, !tbaa !20
  store i32 %16, ptr %5, align 4, !tbaa !20
  call void @llvm.lifetime.start.p0(i64 8, ptr %6) #3
  %17 = getelementptr inbounds nuw %"class.sat::model_converter", ptr %15, i32 0, i32 0
  store ptr %17, ptr %6, align 8, !tbaa !204
  call void @llvm.lifetime.start.p0(i64 8, ptr %7) #3
  %18 = load ptr, ptr %6, align 8, !tbaa !204
  %19 = call noundef ptr @_ZNK6vectorIN3sat15model_converter5entryELb1EjE5beginEv(ptr noundef nonnull align 8 dereferenceable(8) %18)
  store ptr %19, ptr %7, align 8, !tbaa !200
  call void @llvm.lifetime.start.p0(i64 8, ptr %8) #3
  %20 = load ptr, ptr %6, align 8, !tbaa !204
  %21 = call noundef ptr @_ZNK6vectorIN3sat15model_converter5entryELb1EjE3endEv(ptr noundef nonnull align 8 dereferenceable(8) %20)
  store ptr %21, ptr %8, align 8, !tbaa !200
  br label %22

22:                                               ; preds = %58, %2
  %23 = load ptr, ptr %7, align 8, !tbaa !200
  %24 = load ptr, ptr %8, align 8, !tbaa !200
  %25 = icmp ne ptr %23, %24
  br i1 %25, label %27, label %26

26:                                               ; preds = %22
  store i32 2, ptr %9, align 4
  call void @llvm.lifetime.end.p0(i64 8, ptr %8) #3
  call void @llvm.lifetime.end.p0(i64 8, ptr %7) #3
  call void @llvm.lifetime.end.p0(i64 8, ptr %6) #3
  br label %61

27:                                               ; preds = %22
  call void @llvm.lifetime.start.p0(i64 8, ptr %10) #3
  %28 = load ptr, ptr %7, align 8, !tbaa !200
  store ptr %28, ptr %10, align 8, !tbaa !200
  call void @llvm.lifetime.start.p0(i64 8, ptr %11) #3
  %29 = load ptr, ptr %10, align 8, !tbaa !200
  %30 = getelementptr inbounds nuw %"class.sat::model_converter::entry", ptr %29, i32 0, i32 2
  store ptr %30, ptr %11, align 8, !tbaa !178
  call void @llvm.lifetime.start.p0(i64 8, ptr %12) #3
  %31 = load ptr, ptr %11, align 8, !tbaa !178
  %32 = call noundef ptr @_ZNK6vectorIN3sat7literalELb0EjE5beginEv(ptr noundef nonnull align 8 dereferenceable(8) %31)
  store ptr %32, ptr %12, align 8, !tbaa !195
  call void @llvm.lifetime.start.p0(i64 8, ptr %13) #3
  %33 = load ptr, ptr %11, align 8, !tbaa !178
  %34 = call noundef ptr @_ZNK6vectorIN3sat7literalELb0EjE3endEv(ptr noundef nonnull align 8 dereferenceable(8) %33)
  store ptr %34, ptr %13, align 8, !tbaa !195
  br label %35

35:                                               ; preds = %54, %27
  %36 = load ptr, ptr %12, align 8, !tbaa !195
  %37 = load ptr, ptr %13, align 8, !tbaa !195
  %38 = icmp ne ptr %36, %37
  br i1 %38, label %40, label %39

39:                                               ; preds = %35
  store i32 4, ptr %9, align 4
  call void @llvm.lifetime.end.p0(i64 8, ptr %13) #3
  call void @llvm.lifetime.end.p0(i64 8, ptr %12) #3
  call void @llvm.lifetime.end.p0(i64 8, ptr %11) #3
  br label %57

40:                                               ; preds = %35
  call void @llvm.lifetime.start.p0(i64 4, ptr %14) #3
  %41 = load ptr, ptr %12, align 8, !tbaa !195
  call void @llvm.memcpy.p0.p0.i64(ptr align 4 %14, ptr align 4 %41, i64 4, i1 false), !tbaa.struct !183
  %42 = call noundef zeroext i1 @_ZN3satneERKNS_7literalES2_(ptr noundef nonnull align 4 dereferenceable(4) %14, ptr noundef nonnull align 4 dereferenceable(4) @_ZN3sat12null_literalE)
  br i1 %42, label %43, label %53

43:                                               ; preds = %40
  %44 = call noundef i32 @_ZNK3sat7literal3varEv(ptr noundef nonnull align 4 dereferenceable(4) %14)
  %45 = icmp ne i32 %44, 2147483647
  br i1 %45, label %46, label %52

46:                                               ; preds = %43
  %47 = call noundef i32 @_ZNK3sat7literal3varEv(ptr noundef nonnull align 4 dereferenceable(4) %14)
  %48 = load i32, ptr %5, align 4, !tbaa !20
  %49 = icmp ugt i32 %47, %48
  br i1 %49, label %50, label %52

50:                                               ; preds = %46
  %51 = call noundef i32 @_ZNK3sat7literal3varEv(ptr noundef nonnull align 4 dereferenceable(4) %14)
  store i32 %51, ptr %5, align 4, !tbaa !20
  br label %52

52:                                               ; preds = %50, %46, %43
  br label %53

53:                                               ; preds = %52, %40
  call void @llvm.lifetime.end.p0(i64 4, ptr %14) #3
  br label %54

54:                                               ; preds = %53
  %55 = load ptr, ptr %12, align 8, !tbaa !195
  %56 = getelementptr inbounds nuw %"class.sat::literal", ptr %55, i32 1
  store ptr %56, ptr %12, align 8, !tbaa !195
  br label %35

57:                                               ; preds = %39
  call void @llvm.lifetime.end.p0(i64 8, ptr %10) #3
  br label %58

58:                                               ; preds = %57
  %59 = load ptr, ptr %7, align 8, !tbaa !200
  %60 = getelementptr inbounds nuw %"class.sat::model_converter::entry", ptr %59, i32 1
  store ptr %60, ptr %7, align 8, !tbaa !200
  br label %22

61:                                               ; preds = %26
  %62 = load i32, ptr %5, align 4, !tbaa !20
  store i32 1, ptr %9, align 4
  call void @llvm.lifetime.end.p0(i64 4, ptr %5) #3
  ret i32 %62
}