; Function Attrs: mustprogress nofree norecurse nosync nounwind willreturn memory(read, inaccessiblemem: none) uwtable
define hidden noundef i32 @_ZNK3sat15model_converter7max_varEj(ptr noundef nonnull readonly align 8 captures(none) dereferenceable(40) %0, i32 noundef %1) local_unnamed_addr #8 align 2 {
  %3 = load ptr, ptr %0, align 8, !tbaa !3
  %4 = icmp eq ptr %3, null
  br i1 %4, label %._crit_edge32, label %_ZNK6vectorIN3sat15model_converter5entryELb1EjE3endEv.exit

_ZNK6vectorIN3sat15model_converter5entryELb1EjE3endEv.exit: ; preds = %2
  %5 = getelementptr inbounds i8, ptr %3, i64 -4
  %6 = load i32, ptr %5, align 4, !tbaa !9
  %7 = zext i32 %6 to i64
  %8 = getelementptr inbounds nuw %"class.sat::model_converter::entry", ptr %3, i64 %7
  %.not28 = icmp eq i32 %6, 0
  br i1 %.not28, label %._crit_edge32, label %.lr.ph31

._crit_edge32:                                    ; preds = %._crit_edge, %2, %_ZNK6vectorIN3sat15model_converter5entryELb1EjE3endEv.exit
  %.0.lcssa = phi i32 [ %1, %_ZNK6vectorIN3sat15model_converter5entryELb1EjE3endEv.exit ], [ %1, %2 ], [ %.1.lcssa, %._crit_edge ]
  ret i32 %.0.lcssa

.lr.ph31:                                         ; preds = %_ZNK6vectorIN3sat15model_converter5entryELb1EjE3endEv.exit, %._crit_edge
  %.030 = phi i32 [ %.1.lcssa, %._crit_edge ], [ %1, %_ZNK6vectorIN3sat15model_converter5entryELb1EjE3endEv.exit ]
  %.01729 = phi ptr [ %16, %._crit_edge ], [ %3, %_ZNK6vectorIN3sat15model_converter5entryELb1EjE3endEv.exit ]
  %9 = getelementptr inbounds nuw i8, ptr %.01729, i64 8
  %10 = load ptr, ptr %9, align 8, !tbaa !11
  %11 = icmp eq ptr %10, null
  br i1 %11, label %._crit_edge, label %_ZNK6vectorIN3sat7literalELb0EjE3endEv.exit

_ZNK6vectorIN3sat7literalELb0EjE3endEv.exit:      ; preds = %.lr.ph31
  %12 = getelementptr inbounds i8, ptr %10, i64 -4
  %13 = load i32, ptr %12, align 4, !tbaa !9
  %14 = zext i32 %13 to i64
  %15 = getelementptr inbounds nuw %"class.sat::literal", ptr %10, i64 %14
  %.not1825 = icmp eq i32 %13, 0
  br i1 %.not1825, label %._crit_edge, label %.lr.ph

._crit_edge:                                      ; preds = %21, %.lr.ph31, %_ZNK6vectorIN3sat7literalELb0EjE3endEv.exit
  %.1.lcssa = phi i32 [ %.030, %_ZNK6vectorIN3sat7literalELb0EjE3endEv.exit ], [ %.030, %.lr.ph31 ], [ %.2, %21 ]
  %16 = getelementptr inbounds nuw i8, ptr %.01729, i64 32
  %.not = icmp eq ptr %16, %8
  br i1 %.not, label %._crit_edge32, label %.lr.ph31

.lr.ph:                                           ; preds = %_ZNK6vectorIN3sat7literalELb0EjE3endEv.exit, %21
  %.127 = phi i32 [ %.2, %21 ], [ %.030, %_ZNK6vectorIN3sat7literalELb0EjE3endEv.exit ]
  %.01626 = phi ptr [ %22, %21 ], [ %10, %_ZNK6vectorIN3sat7literalELb0EjE3endEv.exit ]
  %17 = load i32, ptr %.01626, align 4, !tbaa !9
  %.not24 = icmp eq i32 %17, -2
  br i1 %.not24, label %21, label %18

18:                                               ; preds = %.lr.ph
  %19 = lshr i32 %17, 1
  %.not19.not = icmp eq i32 %19, 2147483647
  %20 = tail call i32 @llvm.umax.i32(i32 %19, i32 %.127)
  %spec.select = select i1 %.not19.not, i32 %.127, i32 %20
  br label %21

21:                                               ; preds = %18, %.lr.ph
  %.2 = phi i32 [ %.127, %.lr.ph ], [ %spec.select, %18 ]
  %22 = getelementptr inbounds nuw i8, ptr %.01626, i64 4
  %.not18 = icmp eq ptr %22, %15
  br i1 %.not18, label %._crit_edge, label %.lr.ph
}